target datalayout = "e-m:e-p270:32:32-p271:32:32-p272:64:64-i64:64-i128:128-f80:128-n8:16:32:64-S128"
target triple = "x86_64-pc-linux-gnu"

%struct.Curl_easy = type { i32, i64, i64, ptr, %struct.Curl_llist_node, %struct.Curl_llist_node, i32, i32, %struct.Curl_message, %struct.easy_pollset, %struct.Names, ptr, ptr, ptr, %struct.SingleRequest, %struct.UserDefined, ptr, ptr, %struct.Progress, %struct.UrlState, ptr, %struct.PureInfo, %struct.curl_tlssessioninfo }
%struct.Curl_llist_node = type { ptr, ptr, ptr, ptr }
%struct.Curl_message = type { %struct.Curl_llist_node, %struct.CURLMsg }
%struct.CURLMsg = type { i32, ptr, %union.anon }
%union.anon = type { ptr }
%struct.easy_pollset = type { [5 x i32], i32, [5 x i8] }
%struct.Names = type { ptr, i32 }
%struct.SingleRequest = type <{ i64, i64, i64, i64, %struct.curltime, i32, i32, i32, i32, i64, i32, i32, i32, i32, ptr, ptr, %struct.bufq, i64, i64, ptr, ptr, %union.anon.0, ptr, i8, i32, [3 x i8] }>
%struct.curltime = type { i64, i32 }
%struct.bufq = type { ptr, ptr, ptr, ptr, i64, i64, i64, i32 }
%union.anon.0 = type { ptr }
%struct.UserDefined = type <{ ptr, ptr, ptr, ptr, ptr, ptr, i16, [6 x i8], i64, i64, i64, ptr, ptr, i64, i16, i16, [4 x i8], ptr, ptr, ptr, ptr, ptr, ptr, ptr, ptr, ptr, ptr, ptr, ptr, ptr, ptr, ptr, ptr, ptr, ptr, ptr, ptr, ptr, ptr, ptr, i32, i32, i32, i32, i32, [4 x i8], i64, i64, i64, i64, i64, i64, i64, i64, ptr, ptr, %struct.curl_mimepart, ptr, ptr, i64, i8, i8, i8, [5 x i8], %struct.ssl_config_data, %struct.ssl_config_data, ptr, i16, i8, i8, [4 x i8], %struct.ssl_general_config, i32, i32, i32, [4 x i8], ptr, ptr, i8, [7 x i8], i64, i8, i8, i8, i8, i32, ptr, ptr, ptr, i8, i8, [2 x i8], i32, [63 x ptr], [8 x ptr], i32, i32, i32, [4 x i8], ptr, ptr, ptr, ptr, ptr, i8, [3 x i8], i32, i32, i32, i64, %struct.Curl_data_priority, ptr, ptr, i64, ptr, i64, ptr, ptr, ptr, i8, [3 x i8], i32, i8, i8, i64, [6 x i8] }>
%struct.curl_mimepart = type { ptr, ptr, i32, i32, ptr, ptr, ptr, ptr, ptr, ptr, ptr, ptr, ptr, ptr, ptr, i64, %struct.mime_state, ptr, %struct.mime_encoder_state, i64 }
%struct.mime_state = type { i32, ptr, i64 }
%struct.mime_encoder_state = type { i64, i64, i64, [256 x i8] }
%struct.ssl_config_data = type { %struct.ssl_primary_config, i64, ptr, ptr, ptr, ptr, ptr, ptr, ptr, i16 }
%struct.ssl_primary_config = type { ptr, ptr, ptr, ptr, ptr, ptr, ptr, ptr, ptr, ptr, ptr, ptr, i8, i32, i8, i8 }
%struct.ssl_general_config = type { i64, i32 }
%struct.Curl_data_priority = type { ptr, ptr, i32, i8 }
%struct.Progress = type { i64, %struct.pgrs_dir, %struct.pgrs_dir, i64, i64, i32, i32, i64, i64, i64, i64, i64, i64, i64, i64, i64, %struct.curltime, %struct.curltime, %struct.curltime, %struct.curltime, [6 x i64], [6 x %struct.curltime], i32, i8 }
%struct.pgrs_dir = type { i64, i64, i64, %struct.pgrs_measure }
%struct.pgrs_measure = type { %struct.curltime, i64 }
%struct.UrlState = type { %struct.curltime, i64, i64, %struct.dynbuf, ptr, i64, ptr, i32, i32, i32, ptr, i64, i32, i64, i32, ptr, %struct.digestdata, %struct.digestdata, %struct.auth, %struct.auth, %struct.Curl_async, ptr, %struct.curltime, %struct.Curl_tree, %struct.Curl_llist, [15 x %struct.time_node], ptr, ptr, i64, i64, %struct.Curl_data_priority, ptr, ptr, ptr, %struct.urlpieces, ptr, ptr, ptr, ptr, ptr, i64, %struct.dynbuf, %struct.Curl_llist, [2 x %struct.curl_header], ptr, i32, ptr, ptr, %struct.store_netrc, %struct.dynamically_allocated_data, i8, i8, i8, i8, i32 }
%struct.digestdata = type { ptr, ptr, ptr, ptr, ptr, ptr, i32, i8, i8 }
%struct.auth = type { i64, i64, i64, i8 }
%struct.Curl_async = type { ptr, ptr, ptr, ptr, i32, i32, i8 }
%struct.Curl_tree = type { ptr, ptr, ptr, ptr, %struct.curltime, ptr }
%struct.time_node = type { %struct.Curl_llist_node, %struct.curltime, i32 }
%struct.urlpieces = type { ptr, ptr, ptr, ptr, ptr, ptr, ptr, ptr }
%struct.dynbuf = type { ptr, i64, i64, i64 }
%struct.Curl_llist = type { ptr, ptr, ptr, i64 }
%struct.curl_header = type { ptr, ptr, i64, i64, i32, ptr }
%struct.store_netrc = type { %struct.dynbuf, ptr, i8 }
%struct.dynamically_allocated_data = type { ptr, ptr, ptr, ptr, ptr, ptr, ptr, ptr, ptr, ptr, ptr, ptr, ptr }
%struct.PureInfo = type { i32, i32, i32, i64, i64, i64, i64, i64, ptr, ptr, i64, i32, %struct.ip_quadruple, i32, ptr, i32, %struct.curl_certinfo, i32, i8 }
%struct.ip_quadruple = type { [46 x i8], [46 x i8], i32, i32 }
%struct.curl_certinfo = type { i32, ptr }
%struct.curl_tlssessioninfo = type { i32, ptr }
%struct.connectdata = type { %struct.Curl_llist_node, ptr, ptr, i64, ptr, i64, ptr, ptr, %struct.hostname, ptr, ptr, %struct.hostname, %struct.proxy_info, %struct.proxy_info, %struct.ip_quadruple, %struct.ip_quadruple, ptr, ptr, ptr, ptr, ptr, %struct.curltime, %struct.curltime, %struct.curltime, [2 x i32], [2 x ptr], [2 x ptr], [2 x ptr], %struct.anon, %struct.easy_pollset, %struct.ssl_primary_config, %struct.ssl_primary_config, %struct.ConnectBits, ptr, ptr, %struct.curltime, i32, i32, %struct.Curl_llist, i32, i32, %struct.ntlmdata, %struct.ntlmdata, %union.anon.1, ptr, i16, i32, i32, i32, i32, i16, i16, i8, i8, i8, i8, i8, i8, i8 }
%struct.hostname = type { ptr, ptr, ptr, ptr }
%struct.proxy_info = type { %struct.hostname, i32, i8, ptr, ptr }
%struct.anon = type { [2 x %struct.curltime], i32 }
%struct.ConnectBits = type { i64 }
%struct.ntlmdata = type { i32, [8 x i8], i32, ptr }
%union.anon.1 = type { %struct.ftp_conn }
%struct.ftp_conn = type { %struct.pingpong, ptr, ptr, ptr, ptr, ptr, ptr, ptr, i8, i64, ptr, i64, i32, i32, i32, i32, i32, i16, i8, i8, i8, i8, i8 }
%struct.pingpong = type { i64, i8, ptr, i64, i64, %struct.curltime, i64, %struct.dynbuf, %struct.dynbuf, i64, i64, ptr, ptr }
%struct.curl_trc_feat = type { ptr, i32 }

@.str.105 = private unnamed_addr constant [43 x i8] c"Version mismatch (from HTTP/%u to HTTP/%u)\00", align 1
@.str.106 = private unnamed_addr constant [45 x i8] c"Unsupported HTTP version (%u.%d) in response\00", align 1
@.str.107 = private unnamed_addr constant [34 x i8] c"HTTP 1.0, assume close after body\00", align 1

; Function Attrs: nounwind uwtable
define dso_local i32 @Curl_http_statusline(ptr noundef %0, ptr noundef %1) #0 {
  %3 = alloca i32, align 4
  %4 = alloca ptr, align 8
  %5 = alloca ptr, align 8
  %6 = alloca ptr, align 8
  %7 = alloca i32, align 4
  store ptr %0, ptr %4, align 8, !tbaa !4
  store ptr %1, ptr %5, align 8, !tbaa !9
  call void @llvm.lifetime.start.p0(i64 8, ptr %6) #6
  %8 = load ptr, ptr %4, align 8, !tbaa !4
  %9 = getelementptr inbounds nuw %struct.Curl_easy, ptr %8, i32 0, i32 14
  store ptr %9, ptr %6, align 8, !tbaa !221
  %10 = load ptr, ptr %6, align 8, !tbaa !221
  %11 = getelementptr inbounds nuw %struct.SingleRequest, ptr %10, i32 0, i32 10
  %12 = load i32, ptr %11, align 8, !tbaa !237
  switch i32 %12, label %42 [
    i32 10, label %13
    i32 11, label %13
    i32 20, label %13
  ]

13:                                               ; preds = %2, %2, %2
  %14 = load ptr, ptr %5, align 8, !tbaa !9
  %15 = getelementptr inbounds nuw %struct.connectdata, ptr %14, i32 0, i32 56
  %16 = load i8, ptr %15, align 4, !tbaa !111
  %17 = zext i8 %16 to i32
  %18 = icmp ne i32 %17, 0
  br i1 %18, label %19, label %41

19:                                               ; preds = %13
  %20 = load ptr, ptr %6, align 8, !tbaa !221
  %21 = getelementptr inbounds nuw %struct.SingleRequest, ptr %20, i32 0, i32 10
  %22 = load i32, ptr %21, align 8, !tbaa !237
  %23 = sdiv i32 %22, 10
  %24 = load ptr, ptr %5, align 8, !tbaa !9
  %25 = getelementptr inbounds nuw %struct.connectdata, ptr %24, i32 0, i32 56
  %26 = load i8, ptr %25, align 4, !tbaa !111
  %27 = zext i8 %26 to i32
  %28 = sdiv i32 %27, 10
  %29 = icmp ne i32 %23, %28
  br i1 %29, label %30, label %41

30:                                               ; preds = %19
  %31 = load ptr, ptr %4, align 8, !tbaa !4
  %32 = load ptr, ptr %5, align 8, !tbaa !9
  %33 = getelementptr inbounds nuw %struct.connectdata, ptr %32, i32 0, i32 56
  %34 = load i8, ptr %33, align 4, !tbaa !111
  %35 = zext i8 %34 to i32
  %36 = sdiv i32 %35, 10
  %37 = load ptr, ptr %6, align 8, !tbaa !221
  %38 = getelementptr inbounds nuw %struct.SingleRequest, ptr %37, i32 0, i32 10
  %39 = load i32, ptr %38, align 8, !tbaa !237
  %40 = sdiv i32 %39, 10
  call void (ptr, ptr, ...) @Curl_failf(ptr noundef %31, ptr noundef @.str.105, i32 noundef %36, i32 noundef %40)
  store i32 1, ptr %3, align 4
  store i32 1, ptr %7, align 4
  br label %225

41:                                               ; preds = %19, %13
  br label %52

42:                                               ; preds = %2
  %43 = load ptr, ptr %4, align 8, !tbaa !4
  %44 = load ptr, ptr %6, align 8, !tbaa !221
  %45 = getelementptr inbounds nuw %struct.SingleRequest, ptr %44, i32 0, i32 10
  %46 = load i32, ptr %45, align 8, !tbaa !237
  %47 = sdiv i32 %46, 10
  %48 = load ptr, ptr %6, align 8, !tbaa !221
  %49 = getelementptr inbounds nuw %struct.SingleRequest, ptr %48, i32 0, i32 10
  %50 = load i32, ptr %49, align 8, !tbaa !237
  %51 = srem i32 %50, 10
  call void (ptr, ptr, ...) @Curl_failf(ptr noundef %43, ptr noundef @.str.106, i32 noundef %47, i32 noundef %51)
  store i32 1, ptr %3, align 4
  store i32 1, ptr %7, align 4
  br label %225

52:                                               ; preds = %41
  %53 = load ptr, ptr %6, align 8, !tbaa !221
  %54 = getelementptr inbounds nuw %struct.SingleRequest, ptr %53, i32 0, i32 11
  %55 = load i32, ptr %54, align 4, !tbaa !232
  %56 = load ptr, ptr %4, align 8, !tbaa !4
  %57 = getelementptr inbounds nuw %struct.Curl_easy, ptr %56, i32 0, i32 21
  %58 = getelementptr inbounds nuw %struct.PureInfo, ptr %57, i32 0, i32 0
  store i32 %55, ptr %58, align 8, !tbaa !226
  %59 = load ptr, ptr %6, align 8, !tbaa !221
  %60 = getelementptr inbounds nuw %struct.SingleRequest, ptr %59, i32 0, i32 10
  %61 = load i32, ptr %60, align 8, !tbaa !237
  %62 = load ptr, ptr %4, align 8, !tbaa !4
  %63 = getelementptr inbounds nuw %struct.Curl_easy, ptr %62, i32 0, i32 21
  %64 = getelementptr inbounds nuw %struct.PureInfo, ptr %63, i32 0, i32 2
  store i32 %61, ptr %64, align 8, !tbaa !238
  %65 = load ptr, ptr %6, align 8, !tbaa !221
  %66 = getelementptr inbounds nuw %struct.SingleRequest, ptr %65, i32 0, i32 10
  %67 = load i32, ptr %66, align 8, !tbaa !237
  %68 = trunc i32 %67 to i8
  %69 = load ptr, ptr %5, align 8, !tbaa !9
  %70 = getelementptr inbounds nuw %struct.connectdata, ptr %69, i32 0, i32 56
  store i8 %68, ptr %70, align 4, !tbaa !111
  %71 = load ptr, ptr %4, align 8, !tbaa !4
  %72 = getelementptr inbounds nuw %struct.Curl_easy, ptr %71, i32 0, i32 19
  %73 = getelementptr inbounds nuw %struct.UrlState, ptr %72, i32 0, i32 51
  %74 = load i8, ptr %73, align 1, !tbaa !161
  %75 = icmp ne i8 %74, 0
  br i1 %75, label %76, label %86

76:                                               ; preds = %52
  %77 = load ptr, ptr %4, align 8, !tbaa !4
  %78 = getelementptr inbounds nuw %struct.Curl_easy, ptr %77, i32 0, i32 19
  %79 = getelementptr inbounds nuw %struct.UrlState, ptr %78, i32 0, i32 51
  %80 = load i8, ptr %79, align 1, !tbaa !161
  %81 = zext i8 %80 to i32
  %82 = load ptr, ptr %6, align 8, !tbaa !221
  %83 = getelementptr inbounds nuw %struct.SingleRequest, ptr %82, i32 0, i32 10
  %84 = load i32, ptr %83, align 8, !tbaa !237
  %85 = icmp sgt i32 %81, %84
  br i1 %85, label %86, label %94

86:                                               ; preds = %76, %52
  %87 = load ptr, ptr %6, align 8, !tbaa !221
  %88 = getelementptr inbounds nuw %struct.SingleRequest, ptr %87, i32 0, i32 10
  %89 = load i32, ptr %88, align 8, !tbaa !237
  %90 = trunc i32 %89 to i8
  %91 = load ptr, ptr %4, align 8, !tbaa !4
  %92 = getelementptr inbounds nuw %struct.Curl_easy, ptr %91, i32 0, i32 19
  %93 = getelementptr inbounds nuw %struct.UrlState, ptr %92, i32 0, i32 51
  store i8 %90, ptr %93, align 1, !tbaa !161
  br label %94

94:                                               ; preds = %86, %76
  %95 = load ptr, ptr %4, align 8, !tbaa !4
  %96 = getelementptr inbounds nuw %struct.Curl_easy, ptr %95, i32 0, i32 19
  %97 = getelementptr inbounds nuw %struct.UrlState, ptr %96, i32 0, i32 28
  %98 = load i64, ptr %97, align 8, !tbaa !152
  %99 = icmp ne i64 %98, 0
  br i1 %99, label %100, label %118

100:                                              ; preds = %94
  %101 = load ptr, ptr %4, align 8, !tbaa !4
  %102 = getelementptr inbounds nuw %struct.Curl_easy, ptr %101, i32 0, i32 19
  %103 = getelementptr inbounds nuw %struct.UrlState, ptr %102, i32 0, i32 52
  %104 = load i8, ptr %103, align 2, !tbaa !141
  %105 = zext i8 %104 to i32
  %106 = icmp eq i32 %105, 0
  br i1 %106, label %107, label %118

107:                                              ; preds = %100
  %108 = load ptr, ptr %6, align 8, !tbaa !221
  %109 = getelementptr inbounds nuw %struct.SingleRequest, ptr %108, i32 0, i32 11
  %110 = load i32, ptr %109, align 4, !tbaa !232
  %111 = icmp eq i32 %110, 416
  br i1 %111, label %112, label %118

112:                                              ; preds = %107
  %113 = load ptr, ptr %6, align 8, !tbaa !221
  %114 = getelementptr inbounds nuw %struct.SingleRequest, ptr %113, i32 0, i32 24
  %115 = load i32, ptr %114, align 1
  %116 = and i32 %115, -1025
  %117 = or i32 %116, 1024
  store i32 %117, ptr %114, align 1
  br label %118

118:                                              ; preds = %112, %107, %100, %94
  %119 = load ptr, ptr %6, align 8, !tbaa !221
  %120 = getelementptr inbounds nuw %struct.SingleRequest, ptr %119, i32 0, i32 10
  %121 = load i32, ptr %120, align 8, !tbaa !237
  %122 = icmp eq i32 %121, 10
  br i1 %122, label %123, label %156

123:                                              ; preds = %118
  br label %124

124:                                              ; preds = %123
  %125 = load ptr, ptr %4, align 8, !tbaa !4
  %126 = icmp ne ptr %125, null
  br i1 %126, label %127, label %152

127:                                              ; preds = %124
  %128 = load ptr, ptr %4, align 8, !tbaa !4
  %129 = getelementptr inbounds nuw %struct.Curl_easy, ptr %128, i32 0, i32 15
  %130 = getelementptr inbounds nuw %struct.UserDefined, ptr %129, i32 0, i32 124
  %131 = load i64, ptr %130, align 2
  %132 = lshr i64 %131, 27
  %133 = and i64 %132, 1
  %134 = trunc i64 %133 to i32
  %135 = icmp ne i32 %134, 0
  br i1 %135, label %136, label %152

136:                                              ; preds = %127
  %137 = load ptr, ptr %4, align 8, !tbaa !4
  %138 = getelementptr inbounds nuw %struct.Curl_easy, ptr %137, i32 0, i32 19
  %139 = getelementptr inbounds nuw %struct.UrlState, ptr %138, i32 0, i32 47
  %140 = load ptr, ptr %139, align 8, !tbaa !136
  %141 = icmp ne ptr %140, null
  br i1 %141, label %142, label %150

142:                                              ; preds = %136
  %143 = load ptr, ptr %4, align 8, !tbaa !4
  %144 = getelementptr inbounds nuw %struct.Curl_easy, ptr %143, i32 0, i32 19
  %145 = getelementptr inbounds nuw %struct.UrlState, ptr %144, i32 0, i32 47
  %146 = load ptr, ptr %145, align 8, !tbaa !136
  %147 = getelementptr inbounds nuw %struct.curl_trc_feat, ptr %146, i32 0, i32 1
  %148 = load i32, ptr %147, align 8, !tbaa !137
  %149 = icmp sge i32 %148, 1
  br i1 %149, label %150, label %152

150:                                              ; preds = %142, %136
  %151 = load ptr, ptr %4, align 8, !tbaa !4
  call void (ptr, ptr, ...) @Curl_infof(ptr noundef %151, ptr noundef @.str.107)
  br label %152

152:                                              ; preds = %150, %142, %127, %124
  br label %153

153:                                              ; preds = %152
  br label %154

154:                                              ; preds = %153
  %155 = load ptr, ptr %5, align 8, !tbaa !9
  call void @Curl_conncontrol(ptr noundef %155, i32 noundef 1)
  br label %176

156:                                              ; preds = %118
  %157 = load ptr, ptr %6, align 8, !tbaa !221
  %158 = getelementptr inbounds nuw %struct.SingleRequest, ptr %157, i32 0, i32 10
  %159 = load i32, ptr %158, align 8, !tbaa !237
  %160 = icmp eq i32 %159, 20
  br i1 %160, label %171, label %161

161:                                              ; preds = %156
  %162 = load ptr, ptr %6, align 8, !tbaa !221
  %163 = getelementptr inbounds nuw %struct.SingleRequest, ptr %162, i32 0, i32 13
  %164 = load i32, ptr %163, align 4, !tbaa !239
  %165 = icmp eq i32 %164, 2
  br i1 %165, label %166, label %175

166:                                              ; preds = %161
  %167 = load ptr, ptr %6, align 8, !tbaa !221
  %168 = getelementptr inbounds nuw %struct.SingleRequest, ptr %167, i32 0, i32 11
  %169 = load i32, ptr %168, align 4, !tbaa !232
  %170 = icmp eq i32 %169, 101
  br i1 %170, label %171, label %175

171:                                              ; preds = %166, %156
  br label %172

172:                                              ; preds = %171
  br label %173

173:                                              ; preds = %172
  br label %174

174:                                              ; preds = %173
  br label %175

175:                                              ; preds = %174, %166, %161
  br label %176

176:                                              ; preds = %175, %154
  %177 = load ptr, ptr %6, align 8, !tbaa !221
  %178 = getelementptr inbounds nuw %struct.SingleRequest, ptr %177, i32 0, i32 11
  %179 = load i32, ptr %178, align 4, !tbaa !232
  %180 = icmp sge i32 %179, 100
  br i1 %180, label %181, label %186

181:                                              ; preds = %176
  %182 = load ptr, ptr %6, align 8, !tbaa !221
  %183 = getelementptr inbounds nuw %struct.SingleRequest, ptr %182, i32 0, i32 11
  %184 = load i32, ptr %183, align 4, !tbaa !232
  %185 = icmp slt i32 %184, 200
  br label %186

186:                                              ; preds = %181, %176
  %187 = phi i1 [ false, %176 ], [ %185, %181 ]
  %188 = zext i1 %187 to i32
  %189 = load ptr, ptr %6, align 8, !tbaa !221
  %190 = getelementptr inbounds nuw %struct.SingleRequest, ptr %189, i32 0, i32 24
  %191 = load i32, ptr %190, align 1
  %192 = and i32 %188, 1
  %193 = shl i32 %192, 11
  %194 = and i32 %191, -2049
  %195 = or i32 %194, %193
  store i32 %195, ptr %190, align 1
  %196 = load ptr, ptr %6, align 8, !tbaa !221
  %197 = getelementptr inbounds nuw %struct.SingleRequest, ptr %196, i32 0, i32 11
  %198 = load i32, ptr %197, align 4, !tbaa !232
  switch i32 %198, label %223 [
    i32 304, label %199
    i32 204, label %213
  ]

199:                                              ; preds = %186
  %200 = load ptr, ptr %4, align 8, !tbaa !4
  %201 = getelementptr inbounds nuw %struct.Curl_easy, ptr %200, i32 0, i32 15
  %202 = getelementptr inbounds nuw %struct.UserDefined, ptr %201, i32 0, i32 60
  %203 = load i8, ptr %202, align 8, !tbaa !168
  %204 = icmp ne i8 %203, 0
  br i1 %204, label %205, label %212

205:                                              ; preds = %199
  %206 = load ptr, ptr %4, align 8, !tbaa !4
  %207 = getelementptr inbounds nuw %struct.Curl_easy, ptr %206, i32 0, i32 21
  %208 = getelementptr inbounds nuw %struct.PureInfo, ptr %207, i32 0, i32 18
  %209 = load i8, ptr %208, align 4
  %210 = and i8 %209, -2
  %211 = or i8 %210, 1
  store i8 %211, ptr %208, align 4
  br label %212

212:                                              ; preds = %205, %199
  br label %213

213:                                              ; preds = %186, %212
  %214 = load ptr, ptr %6, align 8, !tbaa !221
  %215 = getelementptr inbounds nuw %struct.SingleRequest, ptr %214, i32 0, i32 0
  store i64 0, ptr %215, align 8, !tbaa !224
  %216 = load ptr, ptr %6, align 8, !tbaa !221
  %217 = getelementptr inbounds nuw %struct.SingleRequest, ptr %216, i32 0, i32 1
  store i64 0, ptr %217, align 8, !tbaa !227
  %218 = load ptr, ptr %6, align 8, !tbaa !221
  %219 = getelementptr inbounds nuw %struct.SingleRequest, ptr %218, i32 0, i32 24
  %220 = load i32, ptr %219, align 1
  %221 = and i32 %220, -2049
  %222 = or i32 %221, 2048
  store i32 %222, ptr %219, align 1
  br label %224

223:                                              ; preds = %186
  br label %224

224:                                              ; preds = %223, %213
  store i32 0, ptr %3, align 4
  store i32 1, ptr %7, align 4
  br label %225

225:                                              ; preds = %224, %42, %30
  call void @llvm.lifetime.end.p0(i64 8, ptr %6) #6
  %226 = load i32, ptr %3, align 4
  ret i32 %226
}