; Function Attrs: nounwind uwtable
define dso_local range(i32 0, 2) i32 @Curl_http_statusline(ptr noundef %0, ptr noundef %1) local_unnamed_addr #0 {
  %3 = getelementptr inbounds nuw i8, ptr %0, i64 232
  %4 = getelementptr inbounds nuw i8, ptr %0, i64 304
  %5 = load i32, ptr %4, align 8, !tbaa !212
  switch i32 %5, label %14 [
    i32 10, label %6
    i32 11, label %6
    i32 20, label %6
  ]

6:                                                ; preds = %2, %2, %2
  %7 = getelementptr inbounds nuw i8, ptr %1, i64 1372
  %8 = load i8, ptr %7, align 4, !tbaa !108
  %.not = icmp eq i8 %8, 0
  %.pre58 = trunc i32 %5 to i8
  br i1 %.not, label %._crit_edge, label %9

9:                                                ; preds = %6
  %10 = udiv i8 %.pre58, 10
  %11 = udiv i8 %8, 10
  %.not49 = icmp eq i8 %10, %11
  br i1 %.not49, label %._crit_edge, label %12

12:                                               ; preds = %9
  %13 = zext nneg i8 %11 to i32
  %.zext = zext nneg i8 %10 to i32
  tail call void (ptr, ptr, ...) @Curl_failf(ptr noundef nonnull %0, ptr noundef nonnull @.str.105, i32 noundef %13, i32 noundef %.zext) #11
  br label %71

14:                                               ; preds = %2
  %15 = sdiv i32 %5, 10
  %16 = srem i32 %5, 10
  tail call void (ptr, ptr, ...) @Curl_failf(ptr noundef nonnull %0, ptr noundef nonnull @.str.106, i32 noundef %15, i32 noundef %16) #11
  br label %71

._crit_edge:                                      ; preds = %6, %9
  %17 = getelementptr inbounds nuw i8, ptr %0, i64 308
  %18 = load i32, ptr %17, align 4, !tbaa !207
  %19 = getelementptr inbounds nuw i8, ptr %0, i64 4888
  store i32 %18, ptr %19, align 8, !tbaa !201
  %20 = getelementptr inbounds nuw i8, ptr %0, i64 4896
  store i32 %5, ptr %20, align 8, !tbaa !213
  store i8 %.pre58, ptr %7, align 4, !tbaa !108
  %21 = getelementptr inbounds nuw i8, ptr %0, i64 4873
  %22 = load i8, ptr %21, align 1, !tbaa !145
  %.not50 = icmp eq i8 %22, 0
  %23 = zext i8 %22 to i32
  %24 = icmp samesign ult i32 %5, %23
  %or.cond = select i1 %.not50, i1 true, i1 %24
  br i1 %or.cond, label %25, label %26

25:                                               ; preds = %._crit_edge
  store i8 %.pre58, ptr %21, align 1, !tbaa !145
  br label %26

26:                                               ; preds = %._crit_edge, %25
  %27 = getelementptr inbounds nuw i8, ptr %0, i64 4352
  %28 = load i64, ptr %27, align 8, !tbaa !133
  %.not51 = icmp eq i64 %28, 0
  br i1 %.not51, label %38, label %29

29:                                               ; preds = %26
  %30 = getelementptr inbounds nuw i8, ptr %0, i64 4874
  %31 = load i8, ptr %30, align 2, !tbaa !92
  %32 = icmp eq i8 %31, 0
  %33 = icmp eq i32 %18, 416
  %or.cond57 = select i1 %32, i1 %33, i1 false
  br i1 %or.cond57, label %34, label %38

34:                                               ; preds = %29
  %35 = getelementptr inbounds nuw i8, ptr %0, i64 449
  %36 = load i32, ptr %35, align 1
  %37 = or i32 %36, 1024
  store i32 %37, ptr %35, align 1
  br label %38

38:                                               ; preds = %34, %29, %26
  %39 = icmp eq i32 %5, 10
  br i1 %39, label %40, label %53

40:                                               ; preds = %38
  %41 = getelementptr inbounds nuw i8, ptr %0, i64 2562
  %42 = load i64, ptr %41, align 2
  %43 = and i64 %42, 134217728
  %.not53 = icmp eq i64 %43, 0
  br i1 %.not53, label %52, label %44

44:                                               ; preds = %40
  %45 = getelementptr inbounds nuw i8, ptr %0, i64 4712
  %46 = load ptr, ptr %45, align 8, !tbaa !128
  %.not54 = icmp eq ptr %46, null
  br i1 %.not54, label %51, label %47

47:                                               ; preds = %44
  %48 = getelementptr inbounds nuw i8, ptr %46, i64 8
  %49 = load i32, ptr %48, align 8, !tbaa !129
  %50 = icmp sgt i32 %49, 0
  br i1 %50, label %51, label %52

51:                                               ; preds = %47, %44
  tail call void (ptr, ptr, ...) @Curl_infof(ptr noundef nonnull %0, ptr noundef nonnull @.str.107) #11
  br label %52

52:                                               ; preds = %51, %47, %40
  tail call void @Curl_conncontrol(ptr noundef nonnull %1, i32 noundef 1) #11
  %.pre = load i32, ptr %17, align 4, !tbaa !207
  br label %53

53:                                               ; preds = %38, %52
  %54 = phi i32 [ %18, %38 ], [ %.pre, %52 ]
  %55 = add i32 %54, -100
  %56 = icmp ult i32 %55, 100
  %57 = select i1 %56, i32 2048, i32 0
  %58 = getelementptr inbounds nuw i8, ptr %0, i64 449
  %59 = load i32, ptr %58, align 1
  %60 = and i32 %59, -2049
  %61 = or disjoint i32 %57, %60
  store i32 %61, ptr %58, align 1
  switch i32 %54, label %71 [
    i32 304, label %62
    i32 204, label %69
  ]

62:                                               ; preds = %53
  %63 = getelementptr inbounds nuw i8, ptr %0, i64 1320
  %64 = load i8, ptr %63, align 8, !tbaa !152
  %.not55 = icmp eq i8 %64, 0
  br i1 %.not55, label %69, label %65

65:                                               ; preds = %62
  %66 = getelementptr inbounds nuw i8, ptr %0, i64 5116
  %67 = load i8, ptr %66, align 4
  %68 = or i8 %67, 1
  store i8 %68, ptr %66, align 4
  br label %69

69:                                               ; preds = %62, %65, %53
  %70 = or i32 %59, 2048
  tail call void @llvm.memset.p0.i64(ptr noundef nonnull align 8 dereferenceable(16) %3, i8 0, i64 16, i1 false)
  store i32 %70, ptr %58, align 1
  br label %71

71:                                               ; preds = %69, %53, %14, %12
  %.0 = phi i32 [ 1, %14 ], [ 1, %12 ], [ 0, %53 ], [ 0, %69 ]
  ret i32 %.0
}